; Function Attrs: nounwind uwtable
define internal void @sfnt_stream_close(ptr nocapture noundef %0) #0 {
  %2 = getelementptr inbounds i8, ptr %0, i64 56
  %3 = load ptr, ptr %2, align 8
  %4 = load ptr, ptr %0, align 8
  tail call void @ft_mem_free(ptr noundef %3, ptr noundef %4) #26
  %5 = getelementptr inbounds i8, ptr %0, i64 48
  store ptr null, ptr %5, align 8
  tail call void @llvm.memset.p0.i64(ptr noundef nonnull align 8 dereferenceable(16) %0, i8 0, i64 16, i1 false)
  ret void
}